; Function Attrs: mustprogress null_pointer_is_valid sspstrong uwtable
define void @_ZN10TrafficTab23useNanosecondTimestampsEb(ptr noundef align 8 dereferenceable_or_null(130) %0, i1 noundef zeroext %1) local_unnamed_addr #3 align 2 {
  %3 = tail call noundef i32 @_ZNK10QTabWidget5countEv(ptr noundef align 8 dereferenceable_or_null(40) %0)
  %4 = icmp sgt i32 %3, 0
  br i1 %4, label %_ZN10TrafficTab20dataModelForTabIndexEi.exit, label %._crit_edge

._crit_edge:                                      ; preds = %11, %2
  ret void

_ZN10TrafficTab20dataModelForTabIndexEi.exit:     ; preds = %2, %11
  %.07 = phi i32 [ %12, %11 ], [ 0, %2 ]
  %5 = tail call noundef ptr @_ZNK10QTabWidget6widgetEi(ptr noundef align 8 dereferenceable_or_null(130) %0, i32 noundef %.07)
  %6 = tail call noundef ptr @_ZN10TrafficTab18dataModelForWidgetEP7QWidget(ptr align 8 poison, ptr noundef %5)
  %.not = icmp eq ptr %6, null
  br i1 %.not, label %11, label %7

7:                                                ; preds = %_ZN10TrafficTab20dataModelForTabIndexEi.exit
  %8 = load ptr, ptr %6, align 8
  %9 = getelementptr inbounds nuw i8, ptr %8, i64 408
  %10 = load ptr, ptr %9, align 8
  tail call void %10(ptr noundef nonnull align 8 dereferenceable_or_null(120) %6, i1 noundef zeroext %1)
  br label %11

11:                                               ; preds = %7, %_ZN10TrafficTab20dataModelForTabIndexEi.exit
  %12 = add nuw nsw i32 %.07, 1
  %13 = tail call noundef i32 @_ZNK10QTabWidget5countEv(ptr noundef align 8 dereferenceable_or_null(40) %0)
  %14 = icmp slt i32 %12, %13
  br i1 %14, label %_ZN10TrafficTab20dataModelForTabIndexEi.exit, label %._crit_edge, !llvm.loop !71
}